target datalayout = "e-m:e-p270:32:32-p271:32:32-p272:64:64-i64:64-i128:128-f80:128-n8:16:32:64-S128"
target triple = "x86_64-pc-linux-gnu"

@.str.8 = private unnamed_addr constant [124 x i8] c"generated/home/dtcxzyw/WorkSpace/Projects/compilers/llvm-opt-benchmark/bench/libquic/libquic/boringssl/crypto/pem/pem_lib.c\00", align 1

; Function Attrs: nounwind uwtable
define hidden i32 @PEM_ASN1_write(ptr noundef %0, ptr noundef %1, ptr noundef %2, ptr noundef %3, ptr noundef %4, ptr noundef %5, i32 noundef %6, ptr noundef %7, ptr noundef %8) #0 {
  %10 = alloca i32, align 4
  %11 = alloca ptr, align 8
  %12 = alloca ptr, align 8
  %13 = alloca ptr, align 8
  %14 = alloca ptr, align 8
  %15 = alloca ptr, align 8
  %16 = alloca ptr, align 8
  %17 = alloca i32, align 4
  %18 = alloca ptr, align 8
  %19 = alloca ptr, align 8
  %20 = alloca ptr, align 8
  %21 = alloca i32, align 4
  %22 = alloca i32, align 4
  store ptr %0, ptr %11, align 8, !tbaa !18
  store ptr %1, ptr %12, align 8, !tbaa !6
  store ptr %2, ptr %13, align 8, !tbaa !19
  store ptr %3, ptr %14, align 8, !tbaa !18
  store ptr %4, ptr %15, align 8, !tbaa !37
  store ptr %5, ptr %16, align 8, !tbaa !6
  store i32 %6, ptr %17, align 4, !tbaa !11
  store ptr %7, ptr %18, align 8, !tbaa !18
  store ptr %8, ptr %19, align 8, !tbaa !18
  call void @llvm.lifetime.start.p0(i64 8, ptr %20) #7
  call void @llvm.lifetime.start.p0(i64 4, ptr %21) #7
  %23 = call ptr @BIO_s_file()
  %24 = call ptr @BIO_new(ptr noundef %23)
  store ptr %24, ptr %20, align 8, !tbaa !21
  %25 = icmp eq ptr %24, null
  br i1 %25, label %26, label %27

26:                                               ; preds = %9
  call void @ERR_put_error(i32 noundef 9, i32 noundef 0, i32 noundef 7, ptr noundef @.str.8, i32 noundef 241)
  store i32 0, ptr %10, align 4
  store i32 1, ptr %22, align 4
  br label %44

27:                                               ; preds = %9
  %28 = load ptr, ptr %20, align 8, !tbaa !21
  %29 = load ptr, ptr %13, align 8, !tbaa !19
  %30 = call i32 @BIO_set_fp(ptr noundef %28, ptr noundef %29, i32 noundef 0)
  %31 = load ptr, ptr %11, align 8, !tbaa !18
  %32 = load ptr, ptr %12, align 8, !tbaa !6
  %33 = load ptr, ptr %20, align 8, !tbaa !21
  %34 = load ptr, ptr %14, align 8, !tbaa !18
  %35 = load ptr, ptr %15, align 8, !tbaa !37
  %36 = load ptr, ptr %16, align 8, !tbaa !6
  %37 = load i32, ptr %17, align 4, !tbaa !11
  %38 = load ptr, ptr %18, align 8, !tbaa !18
  %39 = load ptr, ptr %19, align 8, !tbaa !18
  %40 = call i32 @PEM_ASN1_write_bio(ptr noundef %31, ptr noundef %32, ptr noundef %33, ptr noundef %34, ptr noundef %35, ptr noundef %36, i32 noundef %37, ptr noundef %38, ptr noundef %39)
  store i32 %40, ptr %21, align 4, !tbaa !11
  %41 = load ptr, ptr %20, align 8, !tbaa !21
  %42 = call i32 @BIO_free(ptr noundef %41)
  %43 = load i32, ptr %21, align 4, !tbaa !11
  store i32 %43, ptr %10, align 4
  store i32 1, ptr %22, align 4
  br label %44

44:                                               ; preds = %27, %26
  call void @llvm.lifetime.end.p0(i64 4, ptr %21) #7
  call void @llvm.lifetime.end.p0(i64 8, ptr %20) #7
  %45 = load i32, ptr %10, align 4
  ret i32 %45
}