; Function Attrs: nounwind uwtable
define hidden range(i32 0, 2) i32 @PEM_ASN1_write(ptr noundef readonly captures(none) %0, ptr noundef %1, ptr noundef %2, ptr noundef %3, ptr noundef %4, ptr noundef %5, i32 noundef %6, ptr noundef captures(address_is_null) %7, ptr noundef %8) local_unnamed_addr #0 {
  %10 = tail call ptr @BIO_s_file() #12
  %11 = tail call ptr @BIO_new(ptr noundef %10) #12
  %12 = icmp eq ptr %11, null
  br i1 %12, label %13, label %14

13:                                               ; preds = %9
  tail call void @ERR_put_error(i32 noundef 9, i32 noundef 0, i32 noundef 7, ptr noundef nonnull @.str.8, i32 noundef 241) #12
  br label %18

14:                                               ; preds = %9
  %15 = tail call i32 @BIO_set_fp(ptr noundef nonnull %11, ptr noundef %2, i32 noundef 0) #12
  %16 = tail call i32 @PEM_ASN1_write_bio(ptr noundef %0, ptr noundef %1, ptr noundef nonnull %11, ptr noundef %3, ptr noundef %4, ptr noundef %5, i32 noundef %6, ptr noundef %7, ptr noundef %8)
  %17 = tail call i32 @BIO_free(ptr noundef nonnull %11) #12
  br label %18

18:                                               ; preds = %14, %13
  %.0 = phi i32 [ 0, %13 ], [ %16, %14 ]
  ret i32 %.0
}